; Function Attrs: mustprogress nounwind uwtable
define hidden void @_ZNK5clang6driver10toolchains4OHOS16addProfileRTLibsERKN4llvm3opt7ArgListERNS3_11SmallVectorIPKcLj16EEE(ptr noundef nonnull align 8 dereferenceable(4680) %0, ptr noundef nonnull align 8 dereferenceable(176) %1, ptr noundef nonnull align 8 dereferenceable(144) %2) unnamed_addr #0 align 2 {
  %4 = alloca %"class.llvm::SmallString.220", align 8
  %5 = alloca %"class.llvm::Twine", align 8
  %6 = tail call noundef zeroext i1 @_ZN5clang6driver9ToolChain14needsProfileRTERKN4llvm3opt7ArgListE(ptr noundef nonnull align 8 dereferenceable(176) %1) #13
  br i1 %6, label %7, label %35

7:                                                ; preds = %3
  %8 = getelementptr inbounds nuw i8, ptr %5, i64 32
  store i8 3, ptr %8, align 8
  %9 = getelementptr inbounds nuw i8, ptr %5, i64 33
  store i8 5, ptr %9, align 1
  store ptr @.str.40, ptr %5, align 8
  %10 = getelementptr inbounds nuw i8, ptr %5, i64 16
  store ptr @.str.52, ptr %10, align 8
  %11 = getelementptr inbounds i8, ptr %5, i64 24
  store i64 22, ptr %11, align 8
  call void @llvm.lifetime.start.p0(i64 280, ptr nonnull %4)
  %12 = getelementptr inbounds i8, ptr %4, i64 24
  call void @_ZN4llvm15SmallVectorBaseImEC2EPvm(ptr noundef nonnull align 8 dereferenceable(24) %4, ptr noundef nonnull %12, i64 noundef 256) #13
  %13 = call { ptr, i64 } @_ZNK4llvm5Twine11toStringRefERNS_15SmallVectorImplIcEE(ptr noundef nonnull align 8 dereferenceable(34) %5, ptr noundef nonnull align 8 dereferenceable(24) %4)
  %14 = extractvalue { ptr, i64 } %13, 0
  %15 = extractvalue { ptr, i64 } %13, 1
  %16 = load ptr, ptr %1, align 8
  %17 = getelementptr inbounds i8, ptr %16, i64 16
  %18 = load ptr, ptr %17, align 8
  %19 = call noundef ptr %18(ptr noundef nonnull align 8 dereferenceable(176) %1, ptr %14, i64 %15) #13
  %20 = call noundef i64 @_ZNK4llvm15SmallVectorBaseImE4sizeEv(ptr noundef nonnull align 8 dereferenceable(24) %4) #13
  %21 = load ptr, ptr %4, align 8
  %22 = icmp eq ptr %21, %12
  br i1 %22, label %_ZNK4llvm3opt7ArgList13MakeArgStringERKNS_5TwineE.exit, label %23

23:                                               ; preds = %7
  call void @free(ptr noundef %21) #13
  br label %_ZNK4llvm3opt7ArgList13MakeArgStringERKNS_5TwineE.exit

_ZNK4llvm3opt7ArgList13MakeArgStringERKNS_5TwineE.exit: ; preds = %7, %23
  call void @llvm.lifetime.end.p0(i64 280, ptr nonnull %4)
  %24 = call noundef i64 @_ZNK4llvm15SmallVectorBaseIjE4sizeEv(ptr noundef nonnull align 8 dereferenceable(16) %2) #13
  %25 = add i64 %24, 1
  %26 = call noundef i64 @_ZNK4llvm15SmallVectorBaseIjE8capacityEv(ptr noundef nonnull align 8 dereferenceable(16) %2) #13
  %.not.i.i.i = icmp ugt i64 %25, %26
  br i1 %.not.i.i.i, label %27, label %_ZN4llvm23SmallVectorTemplateBaseIPKcLb1EE9push_backES2_.exit

27:                                               ; preds = %_ZNK4llvm3opt7ArgList13MakeArgStringERKNS_5TwineE.exit
  %28 = getelementptr inbounds i8, ptr %2, i64 16
  call void @_ZN4llvm15SmallVectorBaseIjE8grow_podEPvmm(ptr noundef nonnull align 8 dereferenceable(16) %2, ptr noundef nonnull %28, i64 noundef %25, i64 noundef 8) #13
  br label %_ZN4llvm23SmallVectorTemplateBaseIPKcLb1EE9push_backES2_.exit

_ZN4llvm23SmallVectorTemplateBaseIPKcLb1EE9push_backES2_.exit: ; preds = %_ZNK4llvm3opt7ArgList13MakeArgStringERKNS_5TwineE.exit, %27
  %29 = load ptr, ptr %2, align 8
  %30 = call noundef i64 @_ZNK4llvm15SmallVectorBaseIjE4sizeEv(ptr noundef nonnull align 8 dereferenceable(16) %2) #13
  %31 = getelementptr inbounds ptr, ptr %29, i64 %30
  %32 = ptrtoint ptr %19 to i64
  store i64 %32, ptr %31, align 1
  %33 = call noundef i64 @_ZNK4llvm15SmallVectorBaseIjE4sizeEv(ptr noundef nonnull align 8 dereferenceable(16) %2) #13
  %34 = add i64 %33, 1
  call void @_ZN4llvm15SmallVectorBaseIjE8set_sizeEm(ptr noundef nonnull align 8 dereferenceable(16) %2, i64 noundef %34) #13
  br label %35

35:                                               ; preds = %_ZN4llvm23SmallVectorTemplateBaseIPKcLb1EE9push_backES2_.exit, %3
  call void @_ZNK5clang6driver9ToolChain16addProfileRTLibsERKN4llvm3opt7ArgListERNS2_11SmallVectorIPKcLj16EEE(ptr noundef nonnull align 8 dereferenceable(2168) %0, ptr noundef nonnull align 8 dereferenceable(176) %1, ptr noundef nonnull align 8 dereferenceable(144) %2) #13
  ret void
}